; Function Attrs: mustprogress uwtable
define void @_ZNK4LIEF3ELF8CoreFile4dumpERSo(ptr noundef nonnull align 8 dereferenceable(112) %0, ptr noundef nonnull align 8 dereferenceable(8) %1) unnamed_addr #3 align 2 {
  tail call void @_ZNK4LIEF3ELF4Note4dumpERSo(ptr noundef nonnull align 8 dereferenceable(72) %0, ptr noundef nonnull align 8 dereferenceable(8) %1)
  %3 = getelementptr inbounds i8, ptr %0, i64 72
  %4 = load ptr, ptr %3, align 8
  %5 = getelementptr inbounds i8, ptr %0, i64 80
  %6 = load ptr, ptr %5, align 8
  %7 = icmp eq ptr %4, %6
  br i1 %7, label %.loopexit, label %8

8:                                                ; preds = %2
  %9 = tail call noundef nonnull align 8 dereferenceable(8) ptr @_ZStlsISt11char_traitsIcEERSt13basic_ostreamIcT_ES5_c(ptr noundef nonnull align 8 dereferenceable(8) %1, i8 noundef signext 10)
  %10 = load ptr, ptr %3, align 8
  %11 = load ptr, ptr %5, align 8
  %.not12 = icmp eq ptr %10, %11
  br i1 %.not12, label %.loopexit, label %.lr.ph

.lr.ph:                                           ; preds = %8, %.lr.ph
  %.sroa.09.013 = phi ptr [ %15, %.lr.ph ], [ %10, %8 ]
  %12 = tail call noundef nonnull align 8 dereferenceable(8) ptr @_ZStlsISt11char_traitsIcEERSt13basic_ostreamIcT_ES5_PKc(ptr noundef nonnull align 8 dereferenceable(8) %1, ptr noundef nonnull @.str)
  %13 = tail call noundef nonnull align 8 dereferenceable(8) ptr @_ZN4LIEF3ELFlsERSoRKNS0_8CoreFile7entry_tE(ptr noundef nonnull align 8 dereferenceable(8) %12, ptr noundef nonnull align 8 dereferenceable(56) %.sroa.09.013)
  %14 = tail call noundef nonnull align 8 dereferenceable(8) ptr @_ZStlsISt11char_traitsIcEERSt13basic_ostreamIcT_ES5_c(ptr noundef nonnull align 8 dereferenceable(8) %12, i8 noundef signext 10)
  %15 = getelementptr inbounds i8, ptr %.sroa.09.013, i64 56
  %.not = icmp eq ptr %15, %11
  br i1 %.not, label %.loopexit, label %.lr.ph

.loopexit:                                        ; preds = %.lr.ph, %8, %2
  ret void
}